target datalayout = "e-m:e-p270:32:32-p271:32:32-p272:64:64-i64:64-i128:128-f80:128-n8:16:32:64-S128"
target triple = "x86_64-pc-linux-gnu"

%struct.evp_pkey_st = type { i32, i32, ptr, ptr, ptr, %union.legacy_pkey_st, %union.legacy_pkey_st, %struct.CRYPTO_REF_COUNT, ptr, ptr, i32, i8, %struct.crypto_ex_data_st, ptr, ptr, i64, ptr, i64, %struct.anon }
%union.legacy_pkey_st = type { ptr }
%struct.CRYPTO_REF_COUNT = type { i32 }
%struct.crypto_ex_data_st = type { ptr, ptr }
%struct.anon = type { i32, i32, i32 }
%struct.ossl_param_st = type { ptr, i32, ptr, i64, i64 }

@.str = private unnamed_addr constant [30 x i8] c"../openssl/crypto/evp/p_lib.c\00", align 1
@__func__.EVP_PKEY_set_params = private unnamed_addr constant [20 x i8] c"EVP_PKEY_set_params\00", align 1

; Function Attrs: nounwind uwtable
define i32 @EVP_PKEY_set_params(ptr noundef %0, ptr noundef %1) #0 {
  %3 = alloca i32, align 4
  %4 = alloca ptr, align 8
  %5 = alloca ptr, align 8
  store ptr %0, ptr %4, align 8, !tbaa !3
  store ptr %1, ptr %5, align 8, !tbaa !82
  %6 = load ptr, ptr %4, align 8, !tbaa !3
  %7 = icmp ne ptr %6, null
  br i1 %7, label %8, label %27

8:                                                ; preds = %2
  %9 = load ptr, ptr %4, align 8, !tbaa !3
  %10 = getelementptr inbounds nuw %struct.evp_pkey_st, ptr %9, i32 0, i32 13
  %11 = load ptr, ptr %10, align 8, !tbaa !32
  %12 = icmp ne ptr %11, null
  br i1 %12, label %13, label %26

13:                                               ; preds = %8
  %14 = load ptr, ptr %4, align 8, !tbaa !3
  %15 = getelementptr inbounds nuw %struct.evp_pkey_st, ptr %14, i32 0, i32 15
  %16 = load i64, ptr %15, align 8, !tbaa !149
  %17 = add i64 %16, 1
  store i64 %17, ptr %15, align 8, !tbaa !149
  %18 = load ptr, ptr %4, align 8, !tbaa !3
  %19 = getelementptr inbounds nuw %struct.evp_pkey_st, ptr %18, i32 0, i32 13
  %20 = load ptr, ptr %19, align 8, !tbaa !32
  %21 = load ptr, ptr %4, align 8, !tbaa !3
  %22 = getelementptr inbounds nuw %struct.evp_pkey_st, ptr %21, i32 0, i32 14
  %23 = load ptr, ptr %22, align 8, !tbaa !33
  %24 = load ptr, ptr %5, align 8, !tbaa !82
  %25 = call i32 @evp_keymgmt_set_params(ptr noundef %20, ptr noundef %23, ptr noundef %24)
  store i32 %25, ptr %3, align 4
  br label %28

26:                                               ; preds = %8
  br label %27

27:                                               ; preds = %26, %2
  call void @ERR_new()
  call void @ERR_set_debug(ptr noundef @.str, i32 noundef 2438, ptr noundef @__func__.EVP_PKEY_set_params)
  call void (i32, i32, ptr, ...) @ERR_set_error(i32 noundef 6, i32 noundef 163, ptr noundef null)
  store i32 0, ptr %3, align 4
  br label %28

28:                                               ; preds = %27, %13
  %29 = load i32, ptr %3, align 4
  ret i32 %29
}

; Function Attrs: nounwind uwtable
define i32 @EVP_PKEY_set_int_param(ptr noundef %0, ptr noundef %1, i32 noundef %2) #0 {
  %4 = alloca i32, align 4
  %5 = alloca ptr, align 8
  %6 = alloca ptr, align 8
  %7 = alloca i32, align 4
  %8 = alloca [2 x %struct.ossl_param_st], align 16
  %9 = alloca i32, align 4
  %10 = alloca %struct.ossl_param_st, align 8
  %11 = alloca %struct.ossl_param_st, align 8
  store ptr %0, ptr %5, align 8, !tbaa !3
  store ptr %1, ptr %6, align 8, !tbaa !39
  store i32 %2, ptr %7, align 4, !tbaa !8
  call void @llvm.lifetime.start.p0(i64 80, ptr %8) #8
  %12 = load ptr, ptr %6, align 8, !tbaa !39
  %13 = icmp eq ptr %12, null
  br i1 %13, label %14, label %15

14:                                               ; preds = %3
  store i32 0, ptr %4, align 4
  store i32 1, ptr %9, align 4
  br label %22

15:                                               ; preds = %3
  %16 = getelementptr inbounds [2 x %struct.ossl_param_st], ptr %8, i64 0, i64 0
  call void @llvm.lifetime.start.p0(i64 40, ptr %10) #8
  %17 = load ptr, ptr %6, align 8, !tbaa !39
  call void @OSSL_PARAM_construct_int(ptr dead_on_unwind writable sret(%struct.ossl_param_st) align 8 %10, ptr noundef %17, ptr noundef %7)
  call void @llvm.memcpy.p0.p0.i64(ptr align 16 %16, ptr align 8 %10, i64 40, i1 false), !tbaa.struct !71
  call void @llvm.lifetime.end.p0(i64 40, ptr %10) #8
  %18 = getelementptr inbounds [2 x %struct.ossl_param_st], ptr %8, i64 0, i64 1
  call void @llvm.lifetime.start.p0(i64 40, ptr %11) #8
  call void @OSSL_PARAM_construct_end(ptr dead_on_unwind writable sret(%struct.ossl_param_st) align 8 %11)
  call void @llvm.memcpy.p0.p0.i64(ptr align 8 %18, ptr align 8 %11, i64 40, i1 false), !tbaa.struct !71
  call void @llvm.lifetime.end.p0(i64 40, ptr %11) #8
  %19 = load ptr, ptr %5, align 8, !tbaa !3
  %20 = getelementptr inbounds [2 x %struct.ossl_param_st], ptr %8, i64 0, i64 0
  %21 = call i32 @EVP_PKEY_set_params(ptr noundef %19, ptr noundef %20)
  store i32 %21, ptr %4, align 4
  store i32 1, ptr %9, align 4
  br label %22

22:                                               ; preds = %15, %14
  call void @llvm.lifetime.end.p0(i64 80, ptr %8) #8
  %23 = load i32, ptr %4, align 4
  ret i32 %23
}